---
triple:          'arm64-apple-darwin'
binary-path:     draw
relocations:
  - { offset: 0x90FB, size: 0x8, addend: 0x0, symName: __ZStL8__ioinit, symObjAddr: 0x48430, symBinAddr: 0x10000C040, symSize: 0x0 }
  - { offset: 0x949F, size: 0x8, addend: 0x0, symName: _consoleMutex, symObjAddr: 0x1C30, symBinAddr: 0x10000C000, symSize: 0x0 }
  - { offset: 0x98AA, size: 0x8, addend: 0x0, symName: __ZNSt10_Head_baseILm1EPKcLb0EE7_M_headERS2_, symObjAddr: 0x1B2C, symBinAddr: 0x100005C60, symSize: 0x14 }
  - { offset: 0x98D7, size: 0x8, addend: 0x0, symName: __ZNSt10_Head_baseILm0EPFvPKcELb0EE7_M_headERS4_, symObjAddr: 0x1B18, symBinAddr: 0x100005C4C, symSize: 0x14 }
  - { offset: 0x9900, size: 0x8, addend: 0x0, symName: __ZNSt11_Tuple_implILm1EJPKcEE7_M_headERS2_, symObjAddr: 0x1AFC, symBinAddr: 0x100005C30, symSize: 0x1C }
  - { offset: 0x992E, size: 0x8, addend: 0x0, symName: __ZNSt11_Tuple_implILm0EJPFvPKcES1_EE7_M_headERS4_, symObjAddr: 0x1ADC, symBinAddr: 0x100005C10, symSize: 0x20 }
  - { offset: 0x9966, size: 0x8, addend: 0x0, symName: __ZSt13__invoke_implIvPFvPKcEJS1_EET_St14__invoke_otherOT0_DpOT1_, symObjAddr: 0x1A98, symBinAddr: 0x100005BCC, symSize: 0x44 }
  - { offset: 0x99C7, size: 0x8, addend: 0x0, symName: __ZSt7forwardIPKcEOT_RNSt16remove_referenceIS2_E4typeE, symObjAddr: 0x1A84, symBinAddr: 0x100005BB8, symSize: 0x14 }
  - { offset: 0x99F9, size: 0x8, addend: 0x0, symName: __ZSt12__get_helperILm1EPKcJEERT0_RSt11_Tuple_implIXT_EJS2_DpT1_EE, symObjAddr: 0x1A68, symBinAddr: 0x100005B9C, symSize: 0x1C }
  - { offset: 0x9A46, size: 0x8, addend: 0x0, symName: __ZSt7forwardIPFvPKcEEOT_RNSt16remove_referenceIS4_E4typeE, symObjAddr: 0x1A54, symBinAddr: 0x100005B88, symSize: 0x14 }
  - { offset: 0x9A7C, size: 0x8, addend: 0x0, symName: __ZSt12__get_helperILm0EPFvPKcEJS1_EERT0_RSt11_Tuple_implIXT_EJS4_DpT1_EE, symObjAddr: 0x1A38, symBinAddr: 0x100005B6C, symSize: 0x1C }
  - { offset: 0x9AC4, size: 0x8, addend: 0x0, symName: __ZSt8__invokeIPFvPKcEJS1_EENSt15__invoke_resultIT_JDpT0_EE4typeEOS5_DpOS6_, symObjAddr: 0x19F0, symBinAddr: 0x100005B24, symSize: 0x48 }
  - { offset: 0x9B17, size: 0x8, addend: 0x0, symName: __ZSt3getILm1EJPFvPKcES1_EEONSt13tuple_elementIXT_ESt5tupleIJDpT0_EEE4typeEOS8_, symObjAddr: 0x19D0, symBinAddr: 0x100005B04, symSize: 0x20 }
  - { offset: 0x9B62, size: 0x8, addend: 0x0, symName: __ZSt3getILm0EJPFvPKcES1_EEONSt13tuple_elementIXT_ESt5tupleIJDpT0_EEE4typeEOS8_, symObjAddr: 0x19B0, symBinAddr: 0x100005AE4, symSize: 0x20 }
  - { offset: 0x9BAD, size: 0x8, addend: 0x0, symName: __ZSt4moveIRSt5tupleIJPFvPKcES2_EEEONSt16remove_referenceIT_E4typeEOS8_, symObjAddr: 0x199C, symBinAddr: 0x100005AD0, symSize: 0x14 }
  - { offset: 0x9BE3, size: 0x8, addend: 0x0, symName: __ZNSt6thread8_InvokerISt5tupleIJPFvPKcES3_EEE9_M_invokeIJLm0ELm1EEEEvSt12_Index_tupleIJXspT_EEE, symObjAddr: 0x1950, symBinAddr: 0x100005A84, symSize: 0x4C }
  - { offset: 0x9C2C, size: 0x8, addend: 0x0, symName: __ZNSt6thread8_InvokerISt5tupleIJPFvPKcES3_EEEclEv, symObjAddr: 0x1930, symBinAddr: 0x100005A64, symSize: 0x20 }
  - { offset: 0x9C56, size: 0x8, addend: 0x0, symName: __ZNSt6thread11_State_implINS_8_InvokerISt5tupleIJPFvPKcES4_EEEEE6_M_runEv, symObjAddr: 0x190C, symBinAddr: 0x100005A40, symSize: 0x24 }
  - { offset: 0x9CA7, size: 0x8, addend: 0x0, symName: __ZNSt6thread11_State_implINS_8_InvokerISt5tupleIJPFvPKcES4_EEEEED0Ev, symObjAddr: 0x18E4, symBinAddr: 0x100005A18, symSize: 0x28 }
  - { offset: 0x9CD1, size: 0x8, addend: 0x0, symName: __ZNSt6thread11_State_implINS_8_InvokerISt5tupleIJPFvPKcES4_EEEEED1Ev, symObjAddr: 0x18B0, symBinAddr: 0x1000059E4, symSize: 0x34 }
  - { offset: 0x9CF3, size: 0x8, addend: 0x0, symName: __ZNSt10_Head_baseILm1ESt14default_deleteINSt6thread6_StateEELb1EE7_M_headERS4_, symObjAddr: 0x189C, symBinAddr: 0x1000059D0, symSize: 0x14 }
  - { offset: 0x9D1C, size: 0x8, addend: 0x0, symName: __ZNSt11_Tuple_implILm1EJSt14default_deleteINSt6thread6_StateEEEE7_M_headERS4_, symObjAddr: 0x1880, symBinAddr: 0x1000059B4, symSize: 0x1C }
  - { offset: 0x9D46, size: 0x8, addend: 0x0, symName: __ZNSt10_Head_baseILm0EPNSt6thread6_StateELb0EE7_M_headERS3_, symObjAddr: 0x186C, symBinAddr: 0x1000059A0, symSize: 0x14 }
  - { offset: 0x9D8D, size: 0x8, addend: 0x0, symName: __ZNSt10_Head_baseILm1ESt14default_deleteINSt6thread6_StateEELb1EEC2Ev, symObjAddr: 0x1858, symBinAddr: 0x10000598C, symSize: 0x14 }
  - { offset: 0x9DDA, size: 0x8, addend: 0x0, symName: __ZNSt10_Head_baseILm1EPKcLb0EEC2ERKS1_, symObjAddr: 0x1830, symBinAddr: 0x100005964, symSize: 0x28 }
  - { offset: 0x9E05, size: 0x8, addend: 0x0, symName: __ZSt12__get_helperILm1ESt14default_deleteINSt6thread6_StateEEJEERT0_RSt11_Tuple_implIXT_EJS4_DpT1_EE, symObjAddr: 0x1814, symBinAddr: 0x100005948, symSize: 0x1C }
  - { offset: 0x9E47, size: 0x8, addend: 0x0, symName: __ZNSt11_Tuple_implILm0EJPNSt6thread6_StateESt14default_deleteIS1_EEE7_M_headERS5_, symObjAddr: 0x17F8, symBinAddr: 0x10000592C, symSize: 0x1C }
  - { offset: 0x9E8F, size: 0x8, addend: 0x0, symName: __ZNSt10_Head_baseILm0EPNSt6thread6_StateELb0EEC2Ev, symObjAddr: 0x17DC, symBinAddr: 0x100005910, symSize: 0x1C }
  - { offset: 0x9ECF, size: 0x8, addend: 0x0, symName: __ZNSt11_Tuple_implILm1EJSt14default_deleteINSt6thread6_StateEEEEC2Ev, symObjAddr: 0x17BC, symBinAddr: 0x1000058F0, symSize: 0x20 }
  - { offset: 0x9F1C, size: 0x8, addend: 0x0, symName: __ZNSt10_Head_baseILm0EPFvPKcELb0EEC2ERKS3_, symObjAddr: 0x1794, symBinAddr: 0x1000058C8, symSize: 0x28 }
  - { offset: 0x9F73, size: 0x8, addend: 0x0, symName: __ZNSt11_Tuple_implILm1EJPKcEEC2ERKS1_, symObjAddr: 0x176C, symBinAddr: 0x1000058A0, symSize: 0x28 }
  - { offset: 0x9FA5, size: 0x8, addend: 0x0, symName: __ZSt3getILm1EJPNSt6thread6_StateESt14default_deleteIS1_EEERNSt13tuple_elementIXT_ESt5tupleIJDpT0_EEE4typeERS9_, symObjAddr: 0x1750, symBinAddr: 0x100005884, symSize: 0x1C }
  - { offset: 0x9FE9, size: 0x8, addend: 0x0, symName: __ZSt12__get_helperILm0EPNSt6thread6_StateEJSt14default_deleteIS1_EEERT0_RSt11_Tuple_implIXT_EJS5_DpT1_EE, symObjAddr: 0x1734, symBinAddr: 0x100005868, symSize: 0x1C }
  - { offset: 0xA04F, size: 0x8, addend: 0x0, symName: __ZNSt11_Tuple_implILm0EJPNSt6thread6_StateESt14default_deleteIS1_EEEC2Ev, symObjAddr: 0x170C, symBinAddr: 0x100005840, symSize: 0x28 }
  - { offset: 0xA0AB, size: 0x8, addend: 0x0, symName: __ZNSt11_Tuple_implILm0EJPFvPKcES1_EEC2ERKS3_RKS1_, symObjAddr: 0x16D0, symBinAddr: 0x100005804, symSize: 0x3C }
  - { offset: 0xA0DF, size: 0x8, addend: 0x0, symName: __ZNSt6chrono20__duration_cast_implINS_8durationIxSt5ratioILl1ELl1000EEEES2_ILl1000ELl1EExLb0ELb1EE6__castIxS2_ILl1ELl1EEEES4_RKNS1_IT_T0_EE, symObjAddr: 0x167C, symBinAddr: 0x1000057B0, symSize: 0x54 }
  - { offset: 0xA12E, size: 0x8, addend: 0x0, symName: __ZNSt23mersenne_twister_engineIjLm32ELm624ELm397ELm31ELj2567483615ELm11ELj4294967295ELm7ELj2636928640ELm15ELj4022730752ELm18ELj1812433253EE11_M_gen_randEv, symObjAddr: 0x14BC, symBinAddr: 0x1000055F0, symSize: 0x1C0 }
  - { offset: 0xA217, size: 0x8, addend: 0x0, symName: __ZNSt8__detail4_ModIjLj624ELj1ELj0ELb1ELb1EE6__calcEj, symObjAddr: 0x1484, symBinAddr: 0x1000055B8, symSize: 0x38 }
  - { offset: 0xA250, size: 0x8, addend: 0x0, symName: __ZNSt8__detail4_ModIjLj0ELj1ELj0ELb1ELb0EE6__calcEj, symObjAddr: 0x1468, symBinAddr: 0x10000559C, symSize: 0x1C }
  - { offset: 0xA28D, size: 0x8, addend: 0x0, symName: __ZNSt15__uniq_ptr_implINSt6thread6_StateESt14default_deleteIS1_EE10_M_deleterEv, symObjAddr: 0x144C, symBinAddr: 0x100005580, symSize: 0x1C }
  - { offset: 0xA2BA, size: 0x8, addend: 0x0, symName: __ZSt3getILm0EJPNSt6thread6_StateESt14default_deleteIS1_EEERNSt13tuple_elementIXT_ESt5tupleIJDpT0_EEE4typeERS9_, symObjAddr: 0x1430, symBinAddr: 0x100005564, symSize: 0x1C }
  - { offset: 0xA326, size: 0x8, addend: 0x0, symName: __ZNSt5tupleIJPNSt6thread6_StateESt14default_deleteIS1_EEEC1ILb1ELb1EEEv, symObjAddr: 0x1410, symBinAddr: 0x100005544, symSize: 0x20 }
  - { offset: 0xA396, size: 0x8, addend: 0x0, symName: __ZNSt5tupleIJPFvPKcES1_EEC1ILb1ELb1EEERKS3_RKS1_, symObjAddr: 0x13E0, symBinAddr: 0x100005514, symSize: 0x30 }
  - { offset: 0xA404, size: 0x8, addend: 0x0, symName: __ZNSt6chrono13duration_castINS_8durationIxSt5ratioILl1ELl1000EEEExS2_ILl1ELl1EEEENSt9enable_ifIXsrNS_13__is_durationIT_EE5valueES8_E4typeERKNS1_IT0_T1_EE, symObjAddr: 0x13C4, symBinAddr: 0x1000054F8, symSize: 0x1C }
  - { offset: 0xA45B, size: 0x8, addend: 0x0, symName: __ZNSt6chrono20__duration_cast_implINS_8durationIxSt5ratioILl1ELl1000000000EEEES2_ILl1000000ELl1EExLb0ELb1EE6__castIxS2_ILl1ELl1000EEEES4_RKNS1_IT_T0_EE, symObjAddr: 0x1384, symBinAddr: 0x1000054B8, symSize: 0x40 }
  - { offset: 0xA4AA, size: 0x8, addend: 0x0, symName: __ZNSt23mersenne_twister_engineIjLm32ELm624ELm397ELm31ELj2567483615ELm11ELj4294967295ELm7ELj2636928640ELm15ELj4022730752ELm18ELj1812433253EEclEv, symObjAddr: 0x12D0, symBinAddr: 0x100005404, symSize: 0xB4 }
  - { offset: 0xA4E8, size: 0x8, addend: 0x0, symName: __ZNSt24uniform_int_distributionIiE5_S_ndIySt23mersenne_twister_engineIjLm32ELm624ELm397ELm31ELj2567483615ELm11ELj4294967295ELm7ELj2636928640ELm15ELj4022730752ELm18ELj1812433253EEjEET1_RT0_S4_, symObjAddr: 0x122C, symBinAddr: 0x100005360, symSize: 0xA4 }
  - { offset: 0xA588, size: 0x8, addend: 0x0, symName: __ZNKSt24uniform_int_distributionIiE10param_type1aEv, symObjAddr: 0x1214, symBinAddr: 0x100005348, symSize: 0x18 }
  - { offset: 0xA5B2, size: 0x8, addend: 0x0, symName: __ZNKSt24uniform_int_distributionIiE10param_type1bEv, symObjAddr: 0x11FC, symBinAddr: 0x100005330, symSize: 0x18 }
  - { offset: 0xA5D8, size: 0x8, addend: 0x0, symName: __ZNSt8__detail5__modIjLj624ELj1ELj0EEET_S1_, symObjAddr: 0x11E0, symBinAddr: 0x100005314, symSize: 0x1C }
  - { offset: 0xA629, size: 0x8, addend: 0x0, symName: __ZNSt8__detail5__modIjLj0ELj1ELj0EEET_S1_, symObjAddr: 0x11C4, symBinAddr: 0x1000052F8, symSize: 0x1C }
  - { offset: 0xA67D, size: 0x8, addend: 0x0, symName: __ZNKSt14default_deleteINSt6thread6_StateEEclEPS1_, symObjAddr: 0x118C, symBinAddr: 0x1000052C0, symSize: 0x38 }
  - { offset: 0xA6BA, size: 0x8, addend: 0x0, symName: __ZSt4moveIRPNSt6thread6_StateEEONSt16remove_referenceIT_E4typeEOS5_, symObjAddr: 0x1178, symBinAddr: 0x1000052AC, symSize: 0x14 }
  - { offset: 0xA6F0, size: 0x8, addend: 0x0, symName: __ZNSt10unique_ptrINSt6thread6_StateESt14default_deleteIS1_EE11get_deleterEv, symObjAddr: 0x115C, symBinAddr: 0x100005290, symSize: 0x1C }
  - { offset: 0xA71A, size: 0x8, addend: 0x0, symName: __ZNSt15__uniq_ptr_implINSt6thread6_StateESt14default_deleteIS1_EE6_M_ptrEv, symObjAddr: 0x1140, symBinAddr: 0x100005274, symSize: 0x1C }
  - { offset: 0xA76B, size: 0x8, addend: 0x0, symName: __ZNSt15__uniq_ptr_implINSt6thread6_StateESt14default_deleteIS1_EEC2EPS1_, symObjAddr: 0x1104, symBinAddr: 0x100005238, symSize: 0x3C }
  - { offset: 0xA7E3, size: 0x8, addend: 0x0, symName: __ZNSt6thread8_InvokerISt5tupleIJPFvPKcES3_EEEC1IJRS4_RA6_S2_EEEDpOT_, symObjAddr: 0x10A8, symBinAddr: 0x1000051DC, symSize: 0x5C }
  - { offset: 0xA897, size: 0x8, addend: 0x0, symName: __ZNSt6chrono8durationIxSt5ratioILl1ELl1000EEEC1IxS1_ILl1ELl1EEvEERKNS0_IT_T0_EE, symObjAddr: 0x106C, symBinAddr: 0x1000051A0, symSize: 0x3C }
  - { offset: 0xA8D4, size: 0x8, addend: 0x0, symName: __ZNSt6chrono13duration_castINS_8durationIxSt5ratioILl1ELl1000000000EEEExS2_ILl1ELl1000EEEENSt9enable_ifIXsrNS_13__is_durationIT_EE5valueES8_E4typeERKNS1_IT0_T1_EE, symObjAddr: 0x1050, symBinAddr: 0x100005184, symSize: 0x1C }
  - { offset: 0xA967, size: 0x8, addend: 0x0, symName: __ZNSt6chrono8durationIxSt5ratioILl1ELl1EEEC1IxvEERKT_, symObjAddr: 0x1028, symBinAddr: 0x10000515C, symSize: 0x28 }
  - { offset: 0xA99F, size: 0x8, addend: 0x0, symName: __ZNSt24uniform_int_distributionIiEclISt23mersenne_twister_engineIjLm32ELm624ELm397ELm31ELj2567483615ELm11ELj4294967295ELm7ELj2636928640ELm15ELj4022730752ELm18ELj1812433253EEEEiRT_RKNS0_10param_typeE, symObjAddr: 0xF80, symBinAddr: 0x1000050B4, symSize: 0xA8 }
  - { offset: 0xAAFA, size: 0x8, addend: 0x0, symName: __ZNSt24uniform_int_distributionIiE10param_typeC1Eii, symObjAddr: 0xF18, symBinAddr: 0x10000504C, symSize: 0x68 }
  - { offset: 0xAB4F, size: 0x8, addend: 0x0, symName: __ZNSt23mersenne_twister_engineIjLm32ELm624ELm397ELm31ELj2567483615ELm11ELj4294967295ELm7ELj2636928640ELm15ELj4022730752ELm18ELj1812433253EE4seedEj, symObjAddr: 0xE4C, symBinAddr: 0x100004F80, symSize: 0xCC }
  - { offset: 0xAC07, size: 0x8, addend: 0x0, symName: __ZNSt10unique_ptrINSt6thread6_StateESt14default_deleteIS1_EED1Ev, symObjAddr: 0xDE4, symBinAddr: 0x100004F18, symSize: 0x68 }
  - { offset: 0xAC8B, size: 0x8, addend: 0x0, symName: __ZNSt10unique_ptrINSt6thread6_StateESt14default_deleteIS1_EEC1IS3_vEEPS1_, symObjAddr: 0xDBC, symBinAddr: 0x100004EF0, symSize: 0x28 }
  - { offset: 0xACE5, size: 0x8, addend: 0x0, symName: __ZNSt15__uniq_ptr_dataINSt6thread6_StateESt14default_deleteIS1_ELb1ELb1EECI1St15__uniq_ptr_implIS1_S3_EEPS1_, symObjAddr: 0xD94, symBinAddr: 0x100004EC8, symSize: 0x28 }
  - { offset: 0xAD4E, size: 0x8, addend: 0x0, symName: __ZNSt6thread11_State_implINS_8_InvokerISt5tupleIJPFvPKcES4_EEEEEC1IJRS5_RA6_S3_EEEDpOT_, symObjAddr: 0xD10, symBinAddr: 0x100004E44, symSize: 0x84 }
  - { offset: 0xADB9, size: 0x8, addend: 0x0, symName: __ZNSt6thread6_StateC2Ev, symObjAddr: 0xCE8, symBinAddr: 0x100004E1C, symSize: 0x28 }
  - { offset: 0xADE2, size: 0x8, addend: 0x0, symName: __ZSt7forwardIRA6_KcEOT_RNSt16remove_referenceIS3_E4typeE, symObjAddr: 0xCD4, symBinAddr: 0x100004E08, symSize: 0x14 }
  - { offset: 0xAE1F, size: 0x8, addend: 0x0, symName: __ZSt7forwardIRFvPKcEEOT_RNSt16remove_referenceIS4_E4typeE, symObjAddr: 0xCC0, symBinAddr: 0x100004DF4, symSize: 0x14 }
  - { offset: 0xAE55, size: 0x8, addend: 0x0, symName: __ZNSt11unique_lockISt5mutexE6unlockEv, symObjAddr: 0xC60, symBinAddr: 0x100004D94, symSize: 0x60 }
  - { offset: 0xAE7F, size: 0x8, addend: 0x0, symName: __ZNSt11unique_lockISt5mutexE4lockEv, symObjAddr: 0xBFC, symBinAddr: 0x100004D30, symSize: 0x64 }
  - { offset: 0xAEA5, size: 0x8, addend: 0x0, symName: __ZSt11__addressofISt5mutexEPT_RS1_, symObjAddr: 0xBE8, symBinAddr: 0x100004D1C, symSize: 0x14 }
  - { offset: 0xAEDB, size: 0x8, addend: 0x0, symName: __ZNSt7__cxx1112basic_stringIcSt11char_traitsIcESaIcEE12_M_constructIPKcEEvT_S8_St20forward_iterator_tag, symObjAddr: 0xAE8, symBinAddr: 0x100004C1C, symSize: 0x100 }
  - { offset: 0xAFE4, size: 0x8, addend: 0x0, symName: __ZZNSt7__cxx1112basic_stringIcSt11char_traitsIcESaIcEE12_M_constructIPKcEEvT_S8_St20forward_iterator_tagEN6_GuardC1EPS4_, symObjAddr: 0xA90, symBinAddr: 0x100004BC4, symSize: 0x24 }
  - { offset: 0xB017, size: 0x8, addend: 0x0, symName: __ZZNSt7__cxx1112basic_stringIcSt11char_traitsIcESaIcEE12_M_constructIPKcEEvT_S8_St20forward_iterator_tagEN6_GuardD1Ev, symObjAddr: 0xAB4, symBinAddr: 0x100004BE8, symSize: 0x34 }
  - { offset: 0xB117, size: 0x8, addend: 0x0, symName: __ZNSt15__new_allocatorIcED2Ev, symObjAddr: 0xA7C, symBinAddr: 0x100004BB0, symSize: 0x14 }
  - { offset: 0xB17B, size: 0x8, addend: 0x0, symName: __ZN9__gnu_cxx11char_traitsIcE2eqERKcS3_, symObjAddr: 0xA4C, symBinAddr: 0x100004B80, symSize: 0x30 }
  - { offset: 0xB1B4, size: 0x8, addend: 0x0, symName: __ZNSt11this_thread9sleep_forIxSt5ratioILl1ELl1000EEEEvRKNSt6chrono8durationIT_T0_EE, symObjAddr: 0x988, symBinAddr: 0x100004ABC, symSize: 0xC4 }
  - { offset: 0xB21F, size: 0x8, addend: 0x0, symName: __ZNSt6chronomiIxSt5ratioILl1ELl1000EExS1_ILl1ELl1EEEENSt11common_typeIJNS_8durationIT_T0_EENS5_IT1_T2_EEEE4typeERKS8_RKSB_, symObjAddr: 0x924, symBinAddr: 0x100004A58, symSize: 0x64 }
  - { offset: 0xB28B, size: 0x8, addend: 0x0, symName: __ZNSt6chrono20__duration_cast_implINS_8durationIxSt5ratioILl1ELl1EEEES2_ILl1ELl1000EExLb1ELb0EE6__castIxS5_EES4_RKNS1_IT_T0_EE, symObjAddr: 0x8D4, symBinAddr: 0x100004A08, symSize: 0x50 }
  - { offset: 0xB2D2, size: 0x8, addend: 0x0, symName: __ZNSt6chrono13duration_castINS_8durationIxSt5ratioILl1ELl1EEEExS2_ILl1ELl1000EEEENSt9enable_ifIXsrNS_13__is_durationIT_EE5valueES8_E4typeERKNS1_IT0_T1_EE, symObjAddr: 0x8B8, symBinAddr: 0x1000049EC, symSize: 0x1C }
  - { offset: 0xB32D, size: 0x8, addend: 0x0, symName: __ZNKSt6chrono8durationIxSt5ratioILl1ELl1000EEE5countEv, symObjAddr: 0x8A0, symBinAddr: 0x1000049D4, symSize: 0x18 }
  - { offset: 0xB353, size: 0x8, addend: 0x0, symName: __ZNSt6chronoltIxSt5ratioILl1ELl1000EExS2_EEbRKNS_8durationIT_T0_EERKNS3_IT1_T2_EE, symObjAddr: 0x848, symBinAddr: 0x10000497C, symSize: 0x58 }
  - { offset: 0xB3BF, size: 0x8, addend: 0x0, symName: __ZNSt6chronoleIxSt5ratioILl1ELl1000EExS2_EEbRKNS_8durationIT_T0_EERKNS3_IT1_T2_EE, symObjAddr: 0x81C, symBinAddr: 0x100004950, symSize: 0x2C }
  - { offset: 0xB453, size: 0x8, addend: 0x0, symName: __ZNSt6chrono8durationIxSt5ratioILl1ELl1000EEEC1IxvEERKT_, symObjAddr: 0x7F4, symBinAddr: 0x100004928, symSize: 0x28 }
  - { offset: 0xB487, size: 0x8, addend: 0x0, symName: __ZNSt6chrono8durationIxSt5ratioILl1ELl1000EEE4zeroEv, symObjAddr: 0x7CC, symBinAddr: 0x100004900, symSize: 0x28 }
  - { offset: 0xB4DB, size: 0x8, addend: 0x0, symName: __ZNSt6chrono8durationIxSt5ratioILl1ELl1000EEEC1IivEERKT_, symObjAddr: 0x7A0, symBinAddr: 0x1000048D4, symSize: 0x2C }
  - { offset: 0xB513, size: 0x8, addend: 0x0, symName: __ZNSt24uniform_int_distributionIiEclISt23mersenne_twister_engineIjLm32ELm624ELm397ELm31ELj2567483615ELm11ELj4294967295ELm7ELj2636928640ELm15ELj4022730752ELm18ELj1812433253EEEEiRT_, symObjAddr: 0x774, symBinAddr: 0x1000048A8, symSize: 0x2C }
  - { offset: 0xB58A, size: 0x8, addend: 0x0, symName: __ZNSt24uniform_int_distributionIiEC1Eii, symObjAddr: 0x744, symBinAddr: 0x100004878, symSize: 0x30 }
  - { offset: 0xB5EA, size: 0x8, addend: 0x0, symName: __ZNSt23mersenne_twister_engineIjLm32ELm624ELm397ELm31ELj2567483615ELm11ELj4294967295ELm7ELj2636928640ELm15ELj4022730752ELm18ELj1812433253EEC1Ej, symObjAddr: 0x71C, symBinAddr: 0x100004850, symSize: 0x28 }
  - { offset: 0xB661, size: 0x8, addend: 0x0, symName: __ZNSt6threadC1IRFvPKcEJRA6_S1_EvEEOT_DpOT0_, symObjAddr: 0x64C, symBinAddr: 0x100004780, symSize: 0xD0 }
  - { offset: 0xB70A, size: 0x8, addend: 0x0, symName: __ZNSt7__cxx1112basic_stringIcSt11char_traitsIcESaIcEEC1IS3_EEPKcRKS3_, symObjAddr: 0x5B0, symBinAddr: 0x1000046E4, symSize: 0x9C }
  - { offset: 0xB793, size: 0x8, addend: 0x0, symName: __ZNSt11unique_lockISt5mutexED1Ev, symObjAddr: 0x57C, symBinAddr: 0x1000046B0, symSize: 0x34 }
  - { offset: 0xB7E0, size: 0x8, addend: 0x0, symName: __ZNSt11unique_lockISt5mutexEC1ERS0_, symObjAddr: 0x530, symBinAddr: 0x100004664, symSize: 0x4C }
  - { offset: 0xB80F, size: 0x8, addend: 0x0, symName: __ZNKSt6chrono8durationIxSt5ratioILl1ELl1EEE5countEv, symObjAddr: 0x518, symBinAddr: 0x10000464C, symSize: 0x18 }
  - { offset: 0xB896, size: 0x8, addend: 0x0, symName: __ZNSt7__cxx1112basic_stringIcSt11char_traitsIcESaIcEE12_Alloc_hiderD1Ev, symObjAddr: 0x4EC, symBinAddr: 0x100004620, symSize: 0x2C }
  - { offset: 0xB8DB, size: 0x8, addend: 0x0, symName: __ZN9__gnu_cxx11char_traitsIcE6lengthEPKc, symObjAddr: 0x494, symBinAddr: 0x1000045C8, symSize: 0x58 }
  - { offset: 0xB91B, size: 0x8, addend: 0x0, symName: __Z9printWordPKc, symObjAddr: 0x388, symBinAddr: 0x1000044BC, symSize: 0x10C }
  - { offset: 0xB9C6, size: 0x8, addend: 0x0, symName: _main, symObjAddr: 0x2E8, symBinAddr: 0x10000441C, symSize: 0xA0 }
  - { offset: 0xBA03, size: 0x8, addend: 0x0, symName: __ZNSt13random_deviceclEv, symObjAddr: 0x2CC, symBinAddr: 0x100004400, symSize: 0x1C }
  - { offset: 0xBA51, size: 0x8, addend: 0x0, symName: __ZNSt13random_deviceD1Ev, symObjAddr: 0x2AC, symBinAddr: 0x1000043E0, symSize: 0x20 }
  - { offset: 0xBA91, size: 0x8, addend: 0x0, symName: __ZNSt13random_deviceC1Ev, symObjAddr: 0x214, symBinAddr: 0x100004348, symSize: 0x98 }
  - { offset: 0xBB3D, size: 0x8, addend: 0x0, symName: __ZNSt5mutex6unlockEv, symObjAddr: 0x1F4, symBinAddr: 0x100004328, symSize: 0x20 }
  - { offset: 0xBB67, size: 0x8, addend: 0x0, symName: __ZNSt5mutex4lockEv, symObjAddr: 0x1BC, symBinAddr: 0x1000042F0, symSize: 0x38 }
  - { offset: 0xBBA1, size: 0x8, addend: 0x0, symName: __ZNKSt6chrono8durationIxSt5ratioILl1ELl1000000000EEE5countEv, symObjAddr: 0x1A4, symBinAddr: 0x1000042D8, symSize: 0x18 }
  - { offset: 0xBBC7, size: 0x8, addend: 0x0, symName: __ZNSt6chrono15duration_valuesIxE4zeroEv, symObjAddr: 0x19C, symBinAddr: 0x1000042D0, symSize: 0x8 }
  - { offset: 0xBC14, size: 0x8, addend: 0x0, symName: __ZNSt6chrono8durationIxSt5ratioILl1ELl1000000000EEEC1IxvEERKT_, symObjAddr: 0x174, symBinAddr: 0x1000042A8, symSize: 0x28 }
  - { offset: 0xBC48, size: 0x8, addend: 0x0, symName: __ZSteqNSt6thread2idES0_, symObjAddr: 0x14C, symBinAddr: 0x100004280, symSize: 0x28 }
  - { offset: 0xBC87, size: 0x8, addend: 0x0, symName: __ZNKSt6thread8joinableEv, symObjAddr: 0x118, symBinAddr: 0x10000424C, symSize: 0x34 }
  - { offset: 0xBCD5, size: 0x8, addend: 0x0, symName: __ZNSt6threadD1Ev, symObjAddr: 0xE8, symBinAddr: 0x10000421C, symSize: 0x30 }
  - { offset: 0xBD10, size: 0x8, addend: 0x0, symName: __ZNSt6thread24_M_thread_deps_never_runEv, symObjAddr: 0xE0, symBinAddr: 0x100004214, symSize: 0x8 }
  - { offset: 0xBD46, size: 0x8, addend: 0x0, symName: __ZNSt6thread2idC1Ev, symObjAddr: 0xC4, symBinAddr: 0x1000041F8, symSize: 0x1C }
  - { offset: 0xBD70, size: 0x8, addend: 0x0, symName: __ZL22__gthread_mutex_unlockP23_opaque_pthread_mutex_t, symObjAddr: 0x84, symBinAddr: 0x1000041B8, symSize: 0x40 }
  - { offset: 0xBDA2, size: 0x8, addend: 0x0, symName: __ZL20__gthread_mutex_lockP23_opaque_pthread_mutex_t, symObjAddr: 0x44, symBinAddr: 0x100004178, symSize: 0x40 }
  - { offset: 0xBDD4, size: 0x8, addend: 0x0, symName: __ZL18__gthread_active_pv, symObjAddr: 0x3C, symBinAddr: 0x100004170, symSize: 0x8 }
  - { offset: 0xBDEC, size: 0x8, addend: 0x0, symName: __ZNSt11char_traitsIcE6lengthEPKc, symObjAddr: 0x0, symBinAddr: 0x100004134, symSize: 0x3C }
...
