---
triple:          'arm64-apple-darwin'
binary-path:     generateMatrix
relocations:
  - { offset: 0x19, size: 0x8, addend: 0x0, symName: __ZSt3loge, symObjAddr: 0x0, symBinAddr: 0x10000240C, symSize: 0x24 }
  - { offset: 0x5C73, size: 0x8, addend: 0x0, symName: __ZNSt23mersenne_twister_engineIjLm32ELm624ELm397ELm31ELj2567483615ELm11ELj4294967295ELm7ELj2636928640ELm15ELj4022730752ELm18ELj1812433253EE11_M_gen_randEv, symObjAddr: 0xD58, symBinAddr: 0x100003164, symSize: 0x1C0 }
  - { offset: 0x5D57, size: 0x8, addend: 0x0, symName: __ZNSt23mersenne_twister_engineIjLm32ELm624ELm397ELm31ELj2567483615ELm11ELj4294967295ELm7ELj2636928640ELm15ELj4022730752ELm18ELj1812433253EEclEv, symObjAddr: 0xCA4, symBinAddr: 0x1000030B0, symSize: 0xB4 }
  - { offset: 0x5D8B, size: 0x8, addend: 0x0, symName: __ZSt18generate_canonicalIdLm53ESt23mersenne_twister_engineIjLm32ELm624ELm397ELm31ELj2567483615ELm11ELj4294967295ELm7ELj2636928640ELm15ELj4022730752ELm18ELj1812433253EEET_RT1_, symObjAddr: 0xB60, symBinAddr: 0x100002F6C, symSize: 0x144 }
  - { offset: 0x5E68, size: 0x8, addend: 0x0, symName: __ZSt3maxImERKT_S2_S2_, symObjAddr: 0xB28, symBinAddr: 0x100002F34, symSize: 0x38 }
  - { offset: 0x5EA9, size: 0x8, addend: 0x0, symName: __ZNSt23mersenne_twister_engineIjLm32ELm624ELm397ELm31ELj2567483615ELm11ELj4294967295ELm7ELj2636928640ELm15ELj4022730752ELm18ELj1812433253EE3minEv, symObjAddr: 0xB20, symBinAddr: 0x100002F2C, symSize: 0x8 }
  - { offset: 0x5EC0, size: 0x8, addend: 0x0, symName: __ZNSt8__detail4_ModIjLj624ELj1ELj0ELb1ELb1EE6__calcEj, symObjAddr: 0xAE8, symBinAddr: 0x100002EF4, symSize: 0x38 }
  - { offset: 0x5EF6, size: 0x8, addend: 0x0, symName: __ZNSt8__detail4_ModIjLj0ELj1ELj0ELb1ELb0EE6__calcEj, symObjAddr: 0xACC, symBinAddr: 0x100002ED8, symSize: 0x1C }
  - { offset: 0x5F5D, size: 0x8, addend: 0x0, symName: __ZNKSt25uniform_real_distributionIdE10param_type1aEv, symObjAddr: 0xAB0, symBinAddr: 0x100002EBC, symSize: 0x1C }
  - { offset: 0x5F85, size: 0x8, addend: 0x0, symName: __ZNKSt25uniform_real_distributionIdE10param_type1bEv, symObjAddr: 0xA94, symBinAddr: 0x100002EA0, symSize: 0x1C }
  - { offset: 0x5FAD, size: 0x8, addend: 0x0, symName: __ZNSt8__detail8_AdaptorISt23mersenne_twister_engineIjLm32ELm624ELm397ELm31ELj2567483615ELm11ELj4294967295ELm7ELj2636928640ELm15ELj4022730752ELm18ELj1812433253EEdEclEv, symObjAddr: 0xA6C, symBinAddr: 0x100002E78, symSize: 0x28 }
  - { offset: 0x5FFA, size: 0x8, addend: 0x0, symName: __ZNSt8__detail8_AdaptorISt23mersenne_twister_engineIjLm32ELm624ELm397ELm31ELj2567483615ELm11ELj4294967295ELm7ELj2636928640ELm15ELj4022730752ELm18ELj1812433253EEdEC1ERS2_, symObjAddr: 0xA48, symBinAddr: 0x100002E54, symSize: 0x24 }
  - { offset: 0x6022, size: 0x8, addend: 0x0, symName: __ZNSt8__detail5__modIjLj624ELj1ELj0EEET_S1_, symObjAddr: 0xA2C, symBinAddr: 0x100002E38, symSize: 0x1C }
  - { offset: 0x6071, size: 0x8, addend: 0x0, symName: __ZNSt8__detail5__modIjLj0ELj1ELj0EEET_S1_, symObjAddr: 0xA10, symBinAddr: 0x100002E1C, symSize: 0x1C }
  - { offset: 0x60EB, size: 0x8, addend: 0x0, symName: __ZNSt25uniform_real_distributionIdEclISt23mersenne_twister_engineIjLm32ELm624ELm397ELm31ELj2567483615ELm11ELj4294967295ELm7ELj2636928640ELm15ELj4022730752ELm18ELj1812433253EEEEdRT_RKNS0_10param_typeE, symObjAddr: 0x9A0, symBinAddr: 0x100002DAC, symSize: 0x70 }
  - { offset: 0x617E, size: 0x8, addend: 0x0, symName: __ZNSt25uniform_real_distributionIdE10param_typeC1Edd, symObjAddr: 0x930, symBinAddr: 0x100002D3C, symSize: 0x70 }
  - { offset: 0x61CF, size: 0x8, addend: 0x0, symName: __ZNSt23mersenne_twister_engineIjLm32ELm624ELm397ELm31ELj2567483615ELm11ELj4294967295ELm7ELj2636928640ELm15ELj4022730752ELm18ELj1812433253EE4seedEj, symObjAddr: 0x864, symBinAddr: 0x100002C70, symSize: 0xCC }
  - { offset: 0x624B, size: 0x8, addend: 0x0, symName: __ZNSt7__cxx1112basic_stringIcSt11char_traitsIcESaIcEE12_M_constructIPKcEEvT_S8_St20forward_iterator_tag, symObjAddr: 0x764, symBinAddr: 0x100002B70, symSize: 0x100 }
  - { offset: 0x6349, size: 0x8, addend: 0x0, symName: __ZZNSt7__cxx1112basic_stringIcSt11char_traitsIcESaIcEE12_M_constructIPKcEEvT_S8_St20forward_iterator_tagEN6_GuardC1EPS4_, symObjAddr: 0x70C, symBinAddr: 0x100002B18, symSize: 0x24 }
  - { offset: 0x6379, size: 0x8, addend: 0x0, symName: __ZZNSt7__cxx1112basic_stringIcSt11char_traitsIcESaIcEE12_M_constructIPKcEEvT_S8_St20forward_iterator_tagEN6_GuardD1Ev, symObjAddr: 0x730, symBinAddr: 0x100002B3C, symSize: 0x34 }
  - { offset: 0x646D, size: 0x8, addend: 0x0, symName: __ZNSt15__new_allocatorIcED2Ev, symObjAddr: 0x6F8, symBinAddr: 0x100002B04, symSize: 0x14 }
  - { offset: 0x64CA, size: 0x8, addend: 0x0, symName: __ZN9__gnu_cxx11char_traitsIcE2eqERKcS3_, symObjAddr: 0x6C8, symBinAddr: 0x100002AD4, symSize: 0x30 }
  - { offset: 0x6504, size: 0x8, addend: 0x0, symName: __ZNSt25uniform_real_distributionIdEclISt23mersenne_twister_engineIjLm32ELm624ELm397ELm31ELj2567483615ELm11ELj4294967295ELm7ELj2636928640ELm15ELj4022730752ELm18ELj1812433253EEEEdRT_, symObjAddr: 0x694, symBinAddr: 0x100002AA0, symSize: 0x34 }
  - { offset: 0x6577, size: 0x8, addend: 0x0, symName: __ZNSt25uniform_real_distributionIdEC1Edd, symObjAddr: 0x664, symBinAddr: 0x100002A70, symSize: 0x30 }
  - { offset: 0x65D0, size: 0x8, addend: 0x0, symName: __ZNSt23mersenne_twister_engineIjLm32ELm624ELm397ELm31ELj2567483615ELm11ELj4294967295ELm7ELj2636928640ELm15ELj4022730752ELm18ELj1812433253EEC1Ej, symObjAddr: 0x63C, symBinAddr: 0x100002A48, symSize: 0x28 }
  - { offset: 0x663F, size: 0x8, addend: 0x0, symName: __ZNSt7__cxx1112basic_stringIcSt11char_traitsIcESaIcEEC1IS3_EEPKcRKS3_, symObjAddr: 0x5A0, symBinAddr: 0x1000029AC, symSize: 0x9C }
  - { offset: 0x66F6, size: 0x8, addend: 0x0, symName: __ZNSt7__cxx1112basic_stringIcSt11char_traitsIcESaIcEE12_Alloc_hiderD1Ev, symObjAddr: 0x574, symBinAddr: 0x100002980, symSize: 0x2C }
  - { offset: 0x6738, size: 0x8, addend: 0x0, symName: __ZN9__gnu_cxx11char_traitsIcE6lengthEPKc, symObjAddr: 0x51C, symBinAddr: 0x100002928, symSize: 0x58 }
  - { offset: 0x6776, size: 0x8, addend: 0x0, symName: _main, symObjAddr: 0x134, symBinAddr: 0x100002540, symSize: 0x3E8 }
  - { offset: 0x68CB, size: 0x8, addend: 0x0, symName: __ZNSt13random_deviceclEv, symObjAddr: 0x118, symBinAddr: 0x100002524, symSize: 0x1C }
  - { offset: 0x6914, size: 0x8, addend: 0x0, symName: __ZNSt13random_deviceD1Ev, symObjAddr: 0xF8, symBinAddr: 0x100002504, symSize: 0x20 }
  - { offset: 0x6950, size: 0x8, addend: 0x0, symName: __ZNSt13random_deviceC1Ev, symObjAddr: 0x60, symBinAddr: 0x10000246C, symSize: 0x98 }
  - { offset: 0x69F5, size: 0x8, addend: 0x0, symName: __ZNSt11char_traitsIcE6lengthEPKc, symObjAddr: 0x24, symBinAddr: 0x100002430, symSize: 0x3C }
  - { offset: 0x6A36, size: 0x8, addend: 0x0, symName: __ZSt3loge, symObjAddr: 0x0, symBinAddr: 0x10000240C, symSize: 0x24 }
...
